(lp0
(lp1
Vid
p2
aa(lp3
VstudId
p4
aa(lp5
VsessNum
p6
aa(lp7
Vaction
p8
aa(lp9
VuserInput
p10
aa(lp11
VisCorrect
p12
aa(lp13
VelapsedTime
p14
aa(lp15
VprobElapsed
p16
aa(lp17
VproblemId
p18
aa(lp19
VhintStep
p20
aa(lp21
VhintId
p22
aa(lp23
Vemotion
p24
aa(lp25
VactivityName
p26
aa(lp27
VauxId
p28
aa(lp29
VauxTable
p30
aa(lp31
Vtime
p32
aa(lp33
VcurTopicId
p34
aa(lp35
VtesterNote
p36
aa(lp37
VclickTime
p38
aa.