(lp0
(lp1
VsessionId
p2
aa(lp3
VprobId
p4
aa(lp5
VprobName
p6
aa(lp7
VisCorrect
p8
aa(lp9
VstudentAnswer
p10
aa(lp11
VstudId
p12
aa(lp13
VtestType
p14
aa(lp15
VtimeOnProblem
p16
aa(lp17
VseqNum
p18
aa(lp19
Vskipped
p20
aa.