(lp0
(lp1
I11
aF0.604483573868332
aa(lp2
I16
aF0.409715325190468
aa(lp3
I25
aF0.408868519396792
aa(lp4
I27
aF0.40577647675182
aa(lp5
I28
aF0.6
aa(lp6
I34
aF0.614314974688809
aa(lp7
I84
aF0.613539432704696
aa(lp8
I89
aF0.417032808172623
aa(lp9
I94
aF0.616635095310075
aa(lp10
I96
aF0.407929022146024
aa(lp11
I99
aF0.603602710681424
aa(lp12
I103
aF0.518267003472892
aa(lp13
I167
aF0.300957767339941
aa(lp14
I170
aF0.422604808111755
aa(lp15
I172
aF0.419079872559197
aa(lp16
I173
aF0.628379517379675
aa(lp17
I196
aF0.312888879871319
aa(lp18
I199
aF0.532103263571161
aa(lp19
I202
aF0.5
aa(lp20
I289
aF0.634047000699989
aa(lp21
I371
aF0.302422265731996
aa(lp22
I396
aF0.526004315963803
aa(lp23
I412
aF0.534449541837014
aa(lp24
I414
aF0.62149965000558
aa(lp25
I432
aF0.510064018719542
aa(lp26
I434
aF0.512094434806917
aa(lp27
I439
aF0.409151672139204
aa(lp28
I443
aF0.517210671279153
aa(lp29
I447
aF0.411493964932214
aa(lp30
I449
aF0.50880345657533
aa(lp31
I450
aF0.516706706881106
aa(lp32
I451
aF0.311896435207332
aa(lp33
I452
aF0.523824316750023
aa(lp34
I453
aF0.510575884539039
aa(lp35
I454
aF0.305536504128195
aa(lp36
I456
aF0.312031106973434
aa(lp37
I457
aF0.532830237488968
aa(lp38
I459
aF0.506758595152831
aa(lp39
I461
aF0.526515319441767
aa(lp40
I464
aF0.52267881840531
aa(lp41
I465
aF0.406485793553072
aa(lp42
I466
aF0.408003621911956
aa(lp43
I899
aNaa(lp44
I999
aNaa(lp45
I1021
aF0.42267881840531
aa(lp46
I1022
aF0.5
aa(lp47
I1030
aF0.4
aa(lp48
I1031
aF0.4
aa(lp49
I1032
aF0.4
aa(lp50
I1033
aF0.4
aa(lp51
I1034
aF0.4
aa(lp52
I1035
aF0.4
aa(lp53
I1036
aF0.4
aa(lp54
I1037
aF0.4
aa(lp55
I1040
aF0.604483573868332
aa(lp56
I1042
aF0.4
aa(lp57
I1044
aF0.418267003472892
aa(lp58
I1046
aF0.534449541837014
aa(lp59
I1048
aF0.62149965000558
aa(lp60
I1052
aF0.51612793854011
aa(lp61
I1053
aF0.523824316750023
aa(lp62
I1054
aF0.510575884539039
aa(lp63
I1058
aF0.422021281182474
aa(lp64
I1059
aF0.621140532542235
aa(lp65
I1066
aF0.613539432704696
aa(lp66
I1082
aF0.510064018719542
aa(lp67
I1083
aF0.512094434806917
aa(lp68
I1084
aF0.409151672139204
aa(lp69
I1085
aF0.316063483045923
aa(lp70
I1086
aF0.411493964932214
aa(lp71
I1087
aF0.412743648289665
aa(lp72
I1088
aF0.50880345657533
aa(lp73
I1089
aF0.516706706881106
aa(lp74
I1090
aF0.411896435207332
aa(lp75
I1091
aF0.305536504128195
aa(lp76
I1092
aF0.424699283779534
aa(lp77
I1093
aF0.312031106973434
aa(lp78
I1094
aF0.532830237488968
aa(lp79
I1095
aF0.413681002911548
aa(lp80
I1096
aF0.61694227840968
aa(lp81
I1140
aF0.611356579218785
aa(lp82
I1200
aF0.419960118389417
aa(lp83
I1236
aF0.63152172755217
aa(lp84
I1238
aF0.426515319441767
aa(lp85
I1239
aF0.60877992735404
aa(lp86
I1240
aF0.406485793553072
aa(lp87
I1241
aF0.408003621911956
aa(lp88
I1242
aF0.5
aa(lp89
I1257
aF0.609517633293769
aa(lp90
I1265
aF0.61800239286412
aa(lp91
I1318
aF0.613960638097315
aa(lp92
I1327
aF0.616584619665484
aa(lp93
I1350
aF0.651
aa.