(lp0
(lp1
I36743
aI1
aa(lp2
I36744
aI2
aa(lp3
I36745
aI3
aa(lp4
I36746
aI4
aa(lp5
I36747
aI5
aa(lp6
I36748
aI6
aa(lp7
I36749
aI1
aa(lp8
I36750
aI2
aa(lp9
I36751
aI3
aa(lp10
I36752
aI4
aa(lp11
I36753
aI5
aa(lp12
I36754
aI6
aa(lp13
I36755
aI1
aa(lp14
I36756
aI2
aa(lp15
I36757
aI3
aa(lp16
I36758
aI4
aa(lp17
I36759
aI5
aa(lp18
I36760
aI6
aa(lp19
I36761
aI1
aa(lp20
I36762
aI2
aa(lp21
I36769
aI1
aa(lp22
I36770
aI2
aa(lp23
I36771
aI3
aa(lp24
I36772
aI4
aa(lp25
I36773
aI5
aa(lp26
I36774
aI6
aa(lp27
I36775
aI1
aa(lp28
I36776
aI2
aa(lp29
I36777
aI3
aa(lp30
I36778
aI4
aa(lp31
I36779
aI5
aa(lp32
I36780
aI6
aa(lp33
I36781
aI1
aa(lp34
I36782
aI2
aa(lp35
I36783
aI3
aa(lp36
I36784
aI4
aa(lp37
I36785
aI5
aa(lp38
I36786
aI6
aa(lp39
I36789
aI3
aa(lp40
I36790
aI4
aa(lp41
I36791
aI5
aa(lp42
I36792
aI6
aa(lp43
I36793
aI1
aa(lp44
I36794
aI2
aa(lp45
I36795
aI3
aa(lp46
I36796
aI4
aa(lp47
I36797
aI5
aa(lp48
I36798
aI6
aa(lp49
I36799
aI1
aa(lp50
I36800
aI2
aa(lp51
I36801
aI3
aa(lp52
I36802
aI4
aa(lp53
I36803
aI5
aa(lp54
I36804
aI6
aa(lp55
I36805
aI1
aa(lp56
I36806
aI2
aa(lp57
I36807
aI3
aa(lp58
I36808
aI4
aa(lp59
I36815
aI1
aa(lp60
I36816
aI2
aa(lp61
I36817
aI3
aa(lp62
I36818
aI4
aa(lp63
I36819
aI5
aa(lp64
I36820
aI6
aa(lp65
I36821
aI1
aa(lp66
I36822
aI2
aa(lp67
I36823
aI3
aa(lp68
I36824
aI4
aa(lp69
I36825
aI5
aa(lp70
I36826
aI6
aa(lp71
I36827
aI1
aa(lp72
I36828
aI2
aa(lp73
I36829
aI3
aa(lp74
I36830
aI4
aa(lp75
I36831
aI5
aa(lp76
I36832
aI6
aa(lp77
I36834
aI2
aa(lp78
I36835
aI3
aa(lp79
I36836
aI4
aa(lp80
I36837
aI5
aa(lp81
I36838
aI6
aa(lp82
I36839
aI1
aa(lp83
I36840
aI2
aa(lp84
I36841
aI3
aa(lp85
I36842
aI4
aa(lp86
I36843
aI5
aa(lp87
I36844
aI6
aa(lp88
I36845
aI1
aa(lp89
I36846
aI2
aa(lp90
I36847
aI3
aa(lp91
I36848
aI4
aa(lp92
I36849
aI5
aa(lp93
I36850
aI6
aa(lp94
I36851
aI1
aa(lp95
I36852
aI2
aa(lp96
I36853
aI3
aa(lp97
I36854
aI4
aa.